; Function Attrs: mustprogress nounwind uwtable
define hidden noundef zeroext i1 @_ZNK5XHeap14is_initializedEv(ptr noundef nonnull align 64 dereferenceable(4088) %0) local_unnamed_addr #1 align 2 {
  %2 = getelementptr inbounds i8, ptr %0, i64 176
  %3 = tail call noundef zeroext i1 @_ZNK14XPageAllocator14is_initializedEv(ptr noundef nonnull align 8 dereferenceable(609) %2) #12
  br i1 %3, label %4, label %7

4:                                                ; preds = %1
  %5 = getelementptr inbounds i8, ptr %0, i64 832
  %6 = tail call noundef zeroext i1 @_ZNK5XMark14is_initializedEv(ptr noundef nonnull align 64 dereferenceable(2492) %5) #12
  br label %7

7:                                                ; preds = %4, %1
  %8 = phi i1 [ false, %1 ], [ %6, %4 ]
  ret i1 %8
}